target datalayout = "e-m:e-p270:32:32-p271:32:32-p272:64:64-i64:64-i128:128-f80:128-n8:16:32:64-S128"
target triple = "x86_64-pc-linux-gnu"

%struct.Curl_cwriter = type { ptr, ptr, ptr, i32 }
%struct.zstd_writer = type { %struct.Curl_cwriter, ptr, [16384 x i8] }
%struct.ZSTD_inBuffer_s = type { ptr, i64, i64 }
%struct.ZSTD_outBuffer_s = type { ptr, i64, i64 }

; Function Attrs: nounwind uwtable
define internal i32 @zstd_do_write(ptr noundef %0, ptr noundef %1, i32 noundef %2, ptr noundef %3, i64 noundef %4) #0 {
  %6 = alloca i32, align 4
  %7 = alloca ptr, align 8
  %8 = alloca ptr, align 8
  %9 = alloca i32, align 4
  %10 = alloca ptr, align 8
  %11 = alloca i64, align 8
  %12 = alloca i32, align 4
  %13 = alloca ptr, align 8
  %14 = alloca %struct.ZSTD_inBuffer_s, align 8
  %15 = alloca %struct.ZSTD_outBuffer_s, align 8
  %16 = alloca i64, align 8
  %17 = alloca i32, align 4
  store ptr %0, ptr %7, align 8, !tbaa !20
  store ptr %1, ptr %8, align 8, !tbaa !98
  store i32 %2, ptr %9, align 4, !tbaa !22
  store ptr %3, ptr %10, align 8, !tbaa !3
  store i64 %4, ptr %11, align 8, !tbaa !8
  call void @llvm.lifetime.start.p0(i64 4, ptr %12) #5
  store i32 0, ptr %12, align 4, !tbaa !22
  call void @llvm.lifetime.start.p0(i64 8, ptr %13) #5
  %18 = load ptr, ptr %8, align 8, !tbaa !98
  store ptr %18, ptr %13, align 8, !tbaa !129
  call void @llvm.lifetime.start.p0(i64 24, ptr %14) #5
  call void @llvm.lifetime.start.p0(i64 24, ptr %15) #5
  call void @llvm.lifetime.start.p0(i64 8, ptr %16) #5
  %19 = load i32, ptr %9, align 4, !tbaa !22
  %20 = and i32 %19, 1
  %21 = icmp ne i32 %20, 0
  br i1 %21, label %22, label %25

22:                                               ; preds = %5
  %23 = load i64, ptr %11, align 8, !tbaa !8
  %24 = icmp ne i64 %23, 0
  br i1 %24, label %34, label %25

25:                                               ; preds = %22, %5
  %26 = load ptr, ptr %7, align 8, !tbaa !20
  %27 = load ptr, ptr %8, align 8, !tbaa !98
  %28 = getelementptr inbounds nuw %struct.Curl_cwriter, ptr %27, i32 0, i32 1
  %29 = load ptr, ptr %28, align 8, !tbaa !114
  %30 = load i32, ptr %9, align 4, !tbaa !22
  %31 = load ptr, ptr %10, align 8, !tbaa !3
  %32 = load i64, ptr %11, align 8, !tbaa !8
  %33 = call i32 @Curl_cwriter_write(ptr noundef %26, ptr noundef %29, i32 noundef %30, ptr noundef %31, i64 noundef %32)
  store i32 %33, ptr %6, align 4
  store i32 1, ptr %17, align 4
  br label %90

34:                                               ; preds = %22
  %35 = getelementptr inbounds nuw %struct.ZSTD_inBuffer_s, ptr %14, i32 0, i32 2
  store i64 0, ptr %35, align 8, !tbaa !134
  %36 = load ptr, ptr %10, align 8, !tbaa !3
  %37 = getelementptr inbounds nuw %struct.ZSTD_inBuffer_s, ptr %14, i32 0, i32 0
  store ptr %36, ptr %37, align 8, !tbaa !136
  %38 = load i64, ptr %11, align 8, !tbaa !8
  %39 = getelementptr inbounds nuw %struct.ZSTD_inBuffer_s, ptr %14, i32 0, i32 1
  store i64 %38, ptr %39, align 8, !tbaa !137
  br label %40

40:                                               ; preds = %87, %34
  %41 = getelementptr inbounds nuw %struct.ZSTD_outBuffer_s, ptr %15, i32 0, i32 2
  store i64 0, ptr %41, align 8, !tbaa !138
  %42 = load ptr, ptr %13, align 8, !tbaa !129
  %43 = getelementptr inbounds nuw %struct.zstd_writer, ptr %42, i32 0, i32 2
  %44 = getelementptr inbounds [16384 x i8], ptr %43, i64 0, i64 0
  %45 = getelementptr inbounds nuw %struct.ZSTD_outBuffer_s, ptr %15, i32 0, i32 0
  store ptr %44, ptr %45, align 8, !tbaa !140
  %46 = getelementptr inbounds nuw %struct.ZSTD_outBuffer_s, ptr %15, i32 0, i32 1
  store i64 16384, ptr %46, align 8, !tbaa !141
  %47 = load ptr, ptr %13, align 8, !tbaa !129
  %48 = getelementptr inbounds nuw %struct.zstd_writer, ptr %47, i32 0, i32 1
  %49 = load ptr, ptr %48, align 8, !tbaa !131
  %50 = call i64 @ZSTD_decompressStream(ptr noundef %49, ptr noundef %15, ptr noundef %14)
  store i64 %50, ptr %16, align 8, !tbaa !8
  %51 = load i64, ptr %16, align 8, !tbaa !8
  %52 = call i32 @ZSTD_isError(i64 noundef %51)
  %53 = icmp ne i32 %52, 0
  br i1 %53, label %54, label %55

54:                                               ; preds = %40
  store i32 61, ptr %6, align 4
  store i32 1, ptr %17, align 4
  br label %90

55:                                               ; preds = %40
  %56 = getelementptr inbounds nuw %struct.ZSTD_outBuffer_s, ptr %15, i32 0, i32 2
  %57 = load i64, ptr %56, align 8, !tbaa !138
  %58 = icmp ugt i64 %57, 0
  br i1 %58, label %59, label %75

59:                                               ; preds = %55
  %60 = load ptr, ptr %7, align 8, !tbaa !20
  %61 = load ptr, ptr %8, align 8, !tbaa !98
  %62 = getelementptr inbounds nuw %struct.Curl_cwriter, ptr %61, i32 0, i32 1
  %63 = load ptr, ptr %62, align 8, !tbaa !114
  %64 = load i32, ptr %9, align 4, !tbaa !22
  %65 = load ptr, ptr %13, align 8, !tbaa !129
  %66 = getelementptr inbounds nuw %struct.zstd_writer, ptr %65, i32 0, i32 2
  %67 = getelementptr inbounds [16384 x i8], ptr %66, i64 0, i64 0
  %68 = getelementptr inbounds nuw %struct.ZSTD_outBuffer_s, ptr %15, i32 0, i32 2
  %69 = load i64, ptr %68, align 8, !tbaa !138
  %70 = call i32 @Curl_cwriter_write(ptr noundef %60, ptr noundef %63, i32 noundef %64, ptr noundef %67, i64 noundef %69)
  store i32 %70, ptr %12, align 4, !tbaa !22
  %71 = load i32, ptr %12, align 4, !tbaa !22
  %72 = icmp ne i32 %71, 0
  br i1 %72, label %73, label %74

73:                                               ; preds = %59
  br label %88

74:                                               ; preds = %59
  br label %75

75:                                               ; preds = %74, %55
  %76 = getelementptr inbounds nuw %struct.ZSTD_inBuffer_s, ptr %14, i32 0, i32 2
  %77 = load i64, ptr %76, align 8, !tbaa !134
  %78 = load i64, ptr %11, align 8, !tbaa !8
  %79 = icmp eq i64 %77, %78
  br i1 %79, label %80, label %87

80:                                               ; preds = %75
  %81 = getelementptr inbounds nuw %struct.ZSTD_outBuffer_s, ptr %15, i32 0, i32 2
  %82 = load i64, ptr %81, align 8, !tbaa !138
  %83 = getelementptr inbounds nuw %struct.ZSTD_outBuffer_s, ptr %15, i32 0, i32 1
  %84 = load i64, ptr %83, align 8, !tbaa !141
  %85 = icmp ult i64 %82, %84
  br i1 %85, label %86, label %87

86:                                               ; preds = %80
  br label %88

87:                                               ; preds = %80, %75
  br label %40

88:                                               ; preds = %86, %73
  %89 = load i32, ptr %12, align 4, !tbaa !22
  store i32 %89, ptr %6, align 4
  store i32 1, ptr %17, align 4
  br label %90

90:                                               ; preds = %88, %54, %25
  call void @llvm.lifetime.end.p0(i64 8, ptr %16) #5
  call void @llvm.lifetime.end.p0(i64 24, ptr %15) #5
  call void @llvm.lifetime.end.p0(i64 24, ptr %14) #5
  call void @llvm.lifetime.end.p0(i64 8, ptr %13) #5
  call void @llvm.lifetime.end.p0(i64 4, ptr %12) #5
  %91 = load i32, ptr %6, align 4
  ret i32 %91
}