; Function Attrs: nounwind uwtable
define internal i32 @zstd_do_write(ptr noundef %0, ptr noundef %1, i32 noundef %2, ptr noundef %3, i64 noundef %4) #0 {
  %6 = alloca %struct.ZSTD_inBuffer_s, align 8
  %7 = alloca %struct.ZSTD_outBuffer_s, align 8
  call void @llvm.lifetime.start.p0(i64 24, ptr nonnull %6) #8
  call void @llvm.lifetime.start.p0(i64 24, ptr nonnull %7) #8
  %8 = and i32 %2, 1
  %9 = icmp ne i32 %8, 0
  %10 = icmp ne i64 %4, 0
  %or.cond = and i1 %9, %10
  br i1 %or.cond, label %15, label %11

11:                                               ; preds = %5
  %12 = getelementptr inbounds nuw i8, ptr %1, i64 8
  %13 = load ptr, ptr %12, align 8, !tbaa !98
  %14 = tail call i32 @Curl_cwriter_write(ptr noundef %0, ptr noundef %13, i32 noundef %2, ptr noundef %3, i64 noundef %4) #8
  br label %.loopexit

15:                                               ; preds = %5
  %16 = getelementptr inbounds nuw i8, ptr %6, i64 16
  store i64 0, ptr %16, align 8, !tbaa !115
  store ptr %3, ptr %6, align 8, !tbaa !117
  %17 = getelementptr inbounds nuw i8, ptr %6, i64 8
  store i64 %4, ptr %17, align 8, !tbaa !118
  %18 = getelementptr inbounds nuw i8, ptr %1, i64 8
  %19 = getelementptr inbounds nuw i8, ptr %7, i64 16
  %20 = getelementptr inbounds nuw i8, ptr %1, i64 40
  %21 = getelementptr inbounds nuw i8, ptr %7, i64 8
  %22 = getelementptr inbounds nuw i8, ptr %1, i64 32
  store i64 0, ptr %19, align 8, !tbaa !119
  store ptr %20, ptr %7, align 8, !tbaa !121
  store i64 16384, ptr %21, align 8, !tbaa !122
  %23 = load ptr, ptr %22, align 8, !tbaa !112
  %24 = call i64 @ZSTD_decompressStream(ptr noundef %23, ptr noundef nonnull %7, ptr noundef nonnull %6) #8
  %25 = call i32 @ZSTD_isError(i64 noundef %24) #8
  %.not28 = icmp eq i32 %25, 0
  br i1 %.not28, label %.lr.ph, label %.loopexit

.lr.ph:                                           ; preds = %15, %37
  %26 = load i64, ptr %19, align 8, !tbaa !119
  %.not26 = icmp eq i64 %26, 0
  br i1 %.not26, label %30, label %27

27:                                               ; preds = %.lr.ph
  %28 = load ptr, ptr %18, align 8, !tbaa !98
  %29 = call i32 @Curl_cwriter_write(ptr noundef %0, ptr noundef %28, i32 noundef %2, ptr noundef nonnull %20, i64 noundef %26) #8
  %.not27 = icmp eq i32 %29, 0
  br i1 %.not27, label %30, label %.loopexit

30:                                               ; preds = %27, %.lr.ph
  %31 = load i64, ptr %16, align 8, !tbaa !115
  %32 = icmp eq i64 %31, %4
  br i1 %32, label %33, label %37

33:                                               ; preds = %30
  %34 = load i64, ptr %19, align 8, !tbaa !119
  %35 = load i64, ptr %21, align 8, !tbaa !122
  %36 = icmp ult i64 %34, %35
  br i1 %36, label %.loopexit, label %37

37:                                               ; preds = %33, %30
  store i64 0, ptr %19, align 8, !tbaa !119
  store ptr %20, ptr %7, align 8, !tbaa !121
  store i64 16384, ptr %21, align 8, !tbaa !122
  %38 = load ptr, ptr %22, align 8, !tbaa !112
  %39 = call i64 @ZSTD_decompressStream(ptr noundef %38, ptr noundef nonnull %7, ptr noundef nonnull %6) #8
  %40 = call i32 @ZSTD_isError(i64 noundef %39) #8
  %.not = icmp eq i32 %40, 0
  br i1 %.not, label %.lr.ph, label %.loopexit

.loopexit:                                        ; preds = %37, %33, %27, %15, %11
  %.0 = phi i32 [ %14, %11 ], [ 61, %15 ], [ 61, %37 ], [ 0, %33 ], [ %29, %27 ]
  call void @llvm.lifetime.end.p0(i64 24, ptr nonnull %7) #8
  call void @llvm.lifetime.end.p0(i64 24, ptr nonnull %6) #8
  ret i32 %.0
}